(imatplotlib.font_manager
FontManager
p1
(dp2
S'afm_lookup_cache'
p3
(dp4
sS'ttflist'
p5
(lp6
ccopy_reg
_reconstructor
p7
(cmatplotlib.font_manager
FontEntry
p8
c__builtin__
object
p9
NtRp10
(dp11
S'style'
p12
S'oblique'
p13
sS'name'
p14
S'DejaVu Sans'
p15
sS'weight'
p16
I400
sS'stretch'
p17
S'condensed'
p18
sS'variant'
p19
S'normal'
p20
sS'fname'
p21
S'/usr/share/fonts/dejavu/DejaVuSansCondensed-Oblique.ttf'
p22
sS'size'
p23
S'scalable'
p24
sbag7
(g8
g9
NtRp25
(dp26
g12
S'italic'
p27
sg14
S'Liberation Sans'
p28
sg16
I400
sg17
g20
sg19
g20
sg21
S'/usr/share/fonts/liberation/LiberationSans-Italic.ttf'
p29
sg23
g24
sbag7
(g8
g9
NtRp30
(dp31
g12
g20
sg14
S'DejaVu Sans'
p32
sg16
I200
sg17
g20
sg19
g20
sg21
S'/usr/share/fonts/dejavu/DejaVuSans-ExtraLight.ttf'
p33
sg23
g24
sbag7
(g8
g9
NtRp34
(dp35
g12
g20
sg14
S'Liberation Sans'
p36
sg16
I700
sg17
g20
sg19
g20
sg21
S'/usr/share/fonts/liberation/LiberationSans-Bold.ttf'
p37
sg23
g24
sbag7
(g8
g9
NtRp38
(dp39
g12
g20
sg14
S'DejaVu Sans'
p40
sg16
I400
sg17
g20
sg19
g20
sg21
S'/usr/share/fonts/dejavu/DejaVuSans.ttf'
p41
sg23
g24
sbag7
(g8
g9
NtRp42
(dp43
g12
g27
sg14
S'Liberation Sans'
p44
sg16
I700
sg17
g20
sg19
g20
sg21
S'/usr/share/fonts/liberation/LiberationSans-BoldItalic.ttf'
p45
sg23
g24
sbag7
(g8
g9
NtRp46
(dp47
g12
g20
sg14
S'DejaVu Sans'
p48
sg16
I400
sg17
g18
sg19
g20
sg21
S'/usr/share/fonts/dejavu/DejaVuSansCondensed.ttf'
p49
sg23
g24
sbag7
(g8
g9
NtRp50
(dp51
g12
g20
sg14
S'Liberation Sans'
p52
sg16
I400
sg17
g20
sg19
g20
sg21
S'/usr/share/fonts/liberation/LiberationSans-Regular.ttf'
p53
sg23
g24
sbag7
(g8
g9
NtRp54
(dp55
g12
g20
sg14
S'DejaVu Sans'
p56
sg16
I700
sg17
g20
sg19
g20
sg21
S'/usr/share/fonts/dejavu/DejaVuSans-Bold.ttf'
p57
sg23
g24
sbag7
(g8
g9
NtRp58
(dp59
g12
g13
sg14
S'DejaVu Sans'
p60
sg16
I700
sg17
g18
sg19
g20
sg21
S'/usr/share/fonts/dejavu/DejaVuSansCondensed-BoldOblique.ttf'
p61
sg23
g24
sbag7
(g8
g9
NtRp62
(dp63
g12
g20
sg14
S'DejaVu Sans'
p64
sg16
I700
sg17
g18
sg19
g20
sg21
S'/usr/share/fonts/dejavu/DejaVuSansCondensed-Bold.ttf'
p65
sg23
g24
sbag7
(g8
g9
NtRp66
(dp67
g12
g13
sg14
S'DejaVu Sans'
p68
sg16
I400
sg17
g20
sg19
g20
sg21
S'/usr/share/fonts/dejavu/DejaVuSans-Oblique.ttf'
p69
sg23
g24
sbag7
(g8
g9
NtRp70
(dp71
g12
g13
sg14
S'DejaVu Sans'
p72
sg16
I700
sg17
g20
sg19
g20
sg21
S'/usr/share/fonts/dejavu/DejaVuSans-BoldOblique.ttf'
p73
sg23
g24
sbasS'ttffiles'
p74
(lp75
S'/usr/share/fonts/dejavu/DejaVuSansCondensed-Oblique.ttf'
p76
aS'/usr/share/fonts/liberation/LiberationSans-Italic.ttf'
p77
aS'/usr/share/fonts/dejavu/DejaVuSans-ExtraLight.ttf'
p78
aS'/usr/share/fonts/liberation/LiberationSans-Bold.ttf'
p79
aS'/usr/share/fonts/dejavu/DejaVuSans.ttf'
p80
aS'/usr/share/fonts/liberation/LiberationSans-BoldItalic.ttf'
p81
aS'/usr/share/fonts/dejavu/DejaVuSansCondensed.ttf'
p82
aS'/usr/share/fonts/liberation/LiberationSans-Regular.ttf'
p83
aS'/usr/share/fonts/dejavu/DejaVuSans-Bold.ttf'
p84
aS'/usr/share/fonts/dejavu/DejaVuSansCondensed-BoldOblique.ttf'
p85
aS'/usr/share/fonts/dejavu/DejaVuSansCondensed-Bold.ttf'
p86
aS'/usr/share/fonts/dejavu/DejaVuSans-Oblique.ttf'
p87
aS'/usr/share/fonts/dejavu/DejaVuSans-BoldOblique.ttf'
p88
asS'_FontManager__default_weight'
p89
g20
sS'ttf_lookup_cache'
p90
(dp91
sS'default_size'
p92
NsS'defaultFont'
p93
g76
sS'afmfiles'
p94
(lp95
sS'afmlist'
p96
(lp97
sb.